target datalayout = "e-m:e-p270:32:32-p271:32:32-p272:64:64-i64:64-i128:128-f80:128-n8:16:32:64-S128"
target triple = "x86_64-pc-linux-gnu"

%struct.ForEachState = type { ptr, i32 }
%struct.List = type { i32, i32, i32, ptr, [0 x %union.ListCell] }
%union.ListCell = type { ptr }
%struct.Node = type { i32 }
%struct.GroupingSet = type { i32, i32, ptr, i32 }

; Function Attrs: nounwind uwtable
define dso_local ptr @transformGroupClause(ptr noundef %0, ptr noundef %1, ptr noundef %2, ptr noundef %3, ptr noundef %4, i32 noundef %5, i1 noundef zeroext %6) #0 {
  %8 = alloca ptr, align 8
  %9 = alloca ptr, align 8
  %10 = alloca ptr, align 8
  %11 = alloca ptr, align 8
  %12 = alloca ptr, align 8
  %13 = alloca i32, align 4
  %14 = alloca i8, align 1
  %15 = alloca ptr, align 8
  %16 = alloca ptr, align 8
  %17 = alloca ptr, align 8
  %18 = alloca ptr, align 8
  %19 = alloca i8, align 1
  %20 = alloca ptr, align 8
  %21 = alloca %union.ListCell, align 8
  %22 = alloca %struct.ForEachState, align 8
  %23 = alloca ptr, align 8
  %24 = alloca ptr, align 8
  %25 = alloca i32, align 4
  %26 = alloca %union.ListCell, align 8
  store ptr %0, ptr %8, align 8
  store ptr %1, ptr %9, align 8
  store ptr %2, ptr %10, align 8
  store ptr %3, ptr %11, align 8
  store ptr %4, ptr %12, align 8
  store i32 %5, ptr %13, align 4
  %27 = zext i1 %6 to i8
  store i8 %27, ptr %14, align 1
  call void @llvm.lifetime.start.p0(i64 8, ptr %15) #8
  store ptr null, ptr %15, align 8
  call void @llvm.lifetime.start.p0(i64 8, ptr %16) #8
  call void @llvm.lifetime.start.p0(i64 8, ptr %17) #8
  store ptr null, ptr %17, align 8
  call void @llvm.lifetime.start.p0(i64 8, ptr %18) #8
  call void @llvm.lifetime.start.p0(i64 1, ptr %19) #8
  store i8 0, ptr %19, align 1
  call void @llvm.lifetime.start.p0(i64 8, ptr %20) #8
  store ptr null, ptr %20, align 8
  %28 = load ptr, ptr %9, align 8
  %29 = call ptr @flatten_grouping_sets(ptr noundef %28, i1 noundef zeroext true, ptr noundef %19)
  store ptr %29, ptr %16, align 8
  %30 = load ptr, ptr %16, align 8
  %31 = icmp eq ptr %30, null
  br i1 %31, label %32, label %42

32:                                               ; preds = %7
  %33 = load i8, ptr %19, align 1, !range !6, !noundef !7
  %34 = trunc i8 %33 to i1
  br i1 %34, label %35, label %42

35:                                               ; preds = %32
  %36 = load ptr, ptr %9, align 8
  %37 = call i32 @exprLocation(ptr noundef %36)
  %38 = call ptr @makeGroupingSet(i32 noundef 0, ptr noundef null, i32 noundef %37)
  store ptr %38, ptr %21, align 8
  %39 = getelementptr inbounds nuw %union.ListCell, ptr %21, i32 0, i32 0
  %40 = load ptr, ptr %39, align 8
  %41 = call ptr @list_make1_impl(i32 noundef 1, ptr %40)
  store ptr %41, ptr %16, align 8
  br label %42

42:                                               ; preds = %35, %32, %7
  call void @llvm.lifetime.start.p0(i64 16, ptr %22) #8
  %43 = getelementptr inbounds nuw %struct.ForEachState, ptr %22, i32 0, i32 0
  %44 = load ptr, ptr %16, align 8
  store ptr %44, ptr %43, align 8
  %45 = getelementptr inbounds nuw %struct.ForEachState, ptr %22, i32 0, i32 1
  store i32 0, ptr %45, align 8
  %46 = getelementptr i8, ptr %22, i64 12
  call void @llvm.memset.p0.i64(ptr align 4 %46, i8 0, i64 4, i1 false)
  br label %47

47:                                               ; preds = %134, %42
  %48 = getelementptr inbounds nuw %struct.ForEachState, ptr %22, i32 0, i32 0
  %49 = load ptr, ptr %48, align 8
  %50 = icmp ne ptr %49, null
  br i1 %50, label %51, label %68

51:                                               ; preds = %47
  %52 = getelementptr inbounds nuw %struct.ForEachState, ptr %22, i32 0, i32 1
  %53 = load i32, ptr %52, align 8
  %54 = getelementptr inbounds nuw %struct.ForEachState, ptr %22, i32 0, i32 0
  %55 = load ptr, ptr %54, align 8
  %56 = getelementptr inbounds nuw %struct.List, ptr %55, i32 0, i32 1
  %57 = load i32, ptr %56, align 4
  %58 = icmp slt i32 %53, %57
  br i1 %58, label %59, label %68

59:                                               ; preds = %51
  %60 = getelementptr inbounds nuw %struct.ForEachState, ptr %22, i32 0, i32 0
  %61 = load ptr, ptr %60, align 8
  %62 = getelementptr inbounds nuw %struct.List, ptr %61, i32 0, i32 3
  %63 = load ptr, ptr %62, align 8
  %64 = getelementptr inbounds nuw %struct.ForEachState, ptr %22, i32 0, i32 1
  %65 = load i32, ptr %64, align 8
  %66 = sext i32 %65 to i64
  %67 = getelementptr inbounds %union.ListCell, ptr %63, i64 %66
  store ptr %67, ptr %18, align 8
  br label %69

68:                                               ; preds = %51, %47
  store ptr null, ptr %18, align 8
  br label %69

69:                                               ; preds = %68, %59
  %70 = phi i32 [ 1, %59 ], [ 0, %68 ]
  %71 = icmp ne i32 %70, 0
  br i1 %71, label %73, label %72

72:                                               ; preds = %69
  call void @llvm.lifetime.end.p0(i64 16, ptr %22) #8
  br label %138

73:                                               ; preds = %69
  call void @llvm.lifetime.start.p0(i64 8, ptr %23) #8
  %74 = load ptr, ptr %18, align 8
  %75 = load ptr, ptr %74, align 8
  store ptr %75, ptr %23, align 8
  %76 = load ptr, ptr %23, align 8
  %77 = getelementptr inbounds nuw %struct.Node, ptr %76, i32 0, i32 0
  %78 = load i32, ptr %77, align 4
  %79 = icmp eq i32 %78, 107
  br i1 %79, label %80, label %102

80:                                               ; preds = %73
  call void @llvm.lifetime.start.p0(i64 8, ptr %24) #8
  %81 = load ptr, ptr %23, align 8
  store ptr %81, ptr %24, align 8
  %82 = load ptr, ptr %24, align 8
  %83 = getelementptr inbounds nuw %struct.GroupingSet, ptr %82, i32 0, i32 1
  %84 = load i32, ptr %83, align 4
  switch i32 %84, label %101 [
    i32 0, label %85
    i32 1, label %89
    i32 4, label %90
    i32 3, label %90
    i32 2, label %90
  ]

85:                                               ; preds = %80
  %86 = load ptr, ptr %17, align 8
  %87 = load ptr, ptr %24, align 8
  %88 = call ptr @lappend(ptr noundef %86, ptr noundef %87)
  store ptr %88, ptr %17, align 8
  br label %101

89:                                               ; preds = %80
  br label %101

90:                                               ; preds = %80, %80, %80
  %91 = load ptr, ptr %17, align 8
  %92 = load ptr, ptr %8, align 8
  %93 = load ptr, ptr %24, align 8
  %94 = load ptr, ptr %11, align 8
  %95 = load ptr, ptr %12, align 8
  %96 = load i32, ptr %13, align 4
  %97 = load i8, ptr %14, align 1, !range !6, !noundef !7
  %98 = trunc i8 %97 to i1
  %99 = call ptr @transformGroupingSet(ptr noundef %15, ptr noundef %92, ptr noundef %93, ptr noundef %94, ptr noundef %95, i32 noundef %96, i1 noundef zeroext %98, i1 noundef zeroext true)
  %100 = call ptr @lappend(ptr noundef %91, ptr noundef %99)
  store ptr %100, ptr %17, align 8
  br label %101

101:                                              ; preds = %80, %90, %89, %85
  call void @llvm.lifetime.end.p0(i64 8, ptr %24) #8
  br label %133

102:                                              ; preds = %73
  call void @llvm.lifetime.start.p0(i64 4, ptr %25) #8
  %103 = load ptr, ptr %20, align 8
  %104 = load ptr, ptr %8, align 8
  %105 = load ptr, ptr %23, align 8
  %106 = load ptr, ptr %11, align 8
  %107 = load ptr, ptr %12, align 8
  %108 = load i32, ptr %13, align 4
  %109 = load i8, ptr %14, align 1, !range !6, !noundef !7
  %110 = trunc i8 %109 to i1
  %111 = call i32 @transformGroupClauseExpr(ptr noundef %15, ptr noundef %103, ptr noundef %104, ptr noundef %105, ptr noundef %106, ptr noundef %107, i32 noundef %108, i1 noundef zeroext %110, i1 noundef zeroext true)
  store i32 %111, ptr %25, align 4
  %112 = load i32, ptr %25, align 4
  %113 = icmp ugt i32 %112, 0
  br i1 %113, label %114, label %132

114:                                              ; preds = %102
  %115 = load ptr, ptr %20, align 8
  %116 = load i32, ptr %25, align 4
  %117 = call ptr @bms_add_member(ptr noundef %115, i32 noundef %116)
  store ptr %117, ptr %20, align 8
  %118 = load i8, ptr %19, align 1, !range !6, !noundef !7
  %119 = trunc i8 %118 to i1
  br i1 %119, label %120, label %131

120:                                              ; preds = %114
  %121 = load ptr, ptr %17, align 8
  %122 = load i32, ptr %25, align 4
  store i32 %122, ptr %26, align 8
  %123 = getelementptr i8, ptr %26, i64 4
  call void @llvm.memset.p0.i64(ptr align 4 %123, i8 0, i64 4, i1 false)
  %124 = getelementptr inbounds nuw %union.ListCell, ptr %26, i32 0, i32 0
  %125 = load ptr, ptr %124, align 8
  %126 = call ptr @list_make1_impl(i32 noundef 470, ptr %125)
  %127 = load ptr, ptr %23, align 8
  %128 = call i32 @exprLocation(ptr noundef %127)
  %129 = call ptr @makeGroupingSet(i32 noundef 1, ptr noundef %126, i32 noundef %128)
  %130 = call ptr @lappend(ptr noundef %121, ptr noundef %129)
  store ptr %130, ptr %17, align 8
  br label %131

131:                                              ; preds = %120, %114
  br label %132

132:                                              ; preds = %131, %102
  call void @llvm.lifetime.end.p0(i64 4, ptr %25) #8
  br label %133

133:                                              ; preds = %132, %101
  call void @llvm.lifetime.end.p0(i64 8, ptr %23) #8
  br label %134

134:                                              ; preds = %133
  %135 = getelementptr inbounds nuw %struct.ForEachState, ptr %22, i32 0, i32 1
  %136 = load i32, ptr %135, align 8
  %137 = add i32 %136, 1
  store i32 %137, ptr %135, align 8
  br label %47, !llvm.loop !18

138:                                              ; preds = %72
  %139 = load ptr, ptr %10, align 8
  %140 = icmp ne ptr %139, null
  br i1 %140, label %141, label %144

141:                                              ; preds = %138
  %142 = load ptr, ptr %17, align 8
  %143 = load ptr, ptr %10, align 8
  store ptr %142, ptr %143, align 8
  br label %144

144:                                              ; preds = %141, %138
  %145 = load ptr, ptr %15, align 8
  call void @llvm.lifetime.end.p0(i64 8, ptr %20) #8
  call void @llvm.lifetime.end.p0(i64 1, ptr %19) #8
  call void @llvm.lifetime.end.p0(i64 8, ptr %18) #8
  call void @llvm.lifetime.end.p0(i64 8, ptr %17) #8
  call void @llvm.lifetime.end.p0(i64 8, ptr %16) #8
  call void @llvm.lifetime.end.p0(i64 8, ptr %15) #8
  ret ptr %145
}